; Function Attrs: mustprogress null_pointer_is_valid sspstrong uwtable
define void @_ZN13PacketDiagram14setCaptureFileEP13_capture_file(ptr noundef align 8 dereferenceable_or_null(76) initializes((48, 56)) %0, ptr noundef %1) #0 align 2 {
  %3 = getelementptr inbounds nuw i8, ptr %0, i64 48
  store ptr %1, ptr %3, align 8
  %.not = icmp eq ptr %1, null
  br i1 %.not, label %4, label %5

4:                                                ; preds = %2
  tail call void @_ZN13PacketDiagram10resetSceneEb(ptr noundef align 8 dereferenceable_or_null(76) %0, i1 noundef zeroext true)
  br label %5

5:                                                ; preds = %4, %2
  ret void
}